; ModuleID = 'source-C-CXX/41/320.cpp'
source_filename = "source-C-CXX/41/320.cpp"
target datalayout = "e-m:e-p270:32:32-p271:32:32-p272:64:64-i64:64-f80:128-n8:16:32:64-S128"
target triple = "x86_64-pc-linux-gnu"

%"class.std::ios_base::Init" = type { i8 }
%"class.std::basic_istream" = type { i32 (...)**, i64, %"class.std::basic_ios" }
%"class.std::basic_ios" = type { %"class.std::ios_base", %"class.std::basic_ostream"*, i8, i8, %"class.std::basic_streambuf"*, %"class.std::ctype"*, %"class.std::num_put"*, %"class.std::num_get"* }
%"class.std::ios_base" = type { i32 (...)**, i64, i64, i32, i32, i32, %"struct.std::ios_base::_Callback_list"*, %"struct.std::ios_base::_Words", [8 x %"struct.std::ios_base::_Words"], i32, %"struct.std::ios_base::_Words"*, %"class.std::locale" }
%"struct.std::ios_base::_Callback_list" = type { %"struct.std::ios_base::_Callback_list"*, void (i32, %"class.std::ios_base"*, i32)*, i32, i32 }
%"struct.std::ios_base::_Words" = type { i8*, i64 }
%"class.std::locale" = type { %"class.std::locale::_Impl"* }
%"class.std::locale::_Impl" = type { i32, %"class.std::locale::facet"**, i64, %"class.std::locale::facet"**, i8** }
%"class.std::locale::facet" = type <{ i32 (...)**, i32, [4 x i8] }>
%"class.std::basic_ostream" = type { i32 (...)**, %"class.std::basic_ios" }
%"class.std::basic_streambuf" = type { i32 (...)**, i8*, i8*, i8*, i8*, i8*, i8*, %"class.std::locale" }
%"class.std::ctype" = type <{ %"class.std::locale::facet.base", [4 x i8], %struct.__locale_struct*, i8, [7 x i8], i32*, i32*, i16*, i8, [256 x i8], [256 x i8], i8, [6 x i8] }>
%"class.std::locale::facet.base" = type <{ i32 (...)**, i32 }>
%struct.__locale_struct = type { [13 x %struct.__locale_data*], i16*, i32*, i32*, [13 x i8*] }
%struct.__locale_data = type opaque
%"class.std::num_put" = type { %"class.std::locale::facet.base", [4 x i8] }
%"class.std::num_get" = type { %"class.std::locale::facet.base", [4 x i8] }

@_ZStL8__ioinit = internal global %"class.std::ios_base::Init" zeroinitializer, align 1
@__dso_handle = external hidden global i8
@_ZSt3cin = external global %"class.std::basic_istream", align 8
@_ZSt4cout = external global %"class.std::basic_ostream", align 8
@.str = private unnamed_addr constant [2 x i8] c" \00", align 1
@llvm.global_ctors = appending global [1 x { i32, void ()*, i8* }] [{ i32, void ()*, i8* } { i32 65535, void ()* @_GLOBAL__sub_I_320.cpp, i8* null }]

declare void @_ZNSt8ios_base4InitC1Ev(%"class.std::ios_base::Init"* nonnull align 1 dereferenceable(1)) unnamed_addr #0

; Function Attrs: nounwind
declare void @_ZNSt8ios_base4InitD1Ev(%"class.std::ios_base::Init"* nonnull align 1 dereferenceable(1)) unnamed_addr #1

; Function Attrs: nofree nounwind
declare i32 @__cxa_atexit(void (i8*)*, i8*, i8*) local_unnamed_addr #2

; Function Attrs: mustprogress norecurse sspstrong uwtable
define dso_local i32 @main() local_unnamed_addr #3 {
  %1 = alloca i32, align 4
  %2 = alloca i32, align 4
  %3 = alloca [100000 x i32], align 16
  %4 = bitcast i32* %1 to i8*
  call void @llvm.lifetime.start.p0i8(i64 4, i8* nonnull %4) #6
  %5 = bitcast i32* %2 to i8*
  call void @llvm.lifetime.start.p0i8(i64 4, i8* nonnull %5) #6
  %6 = bitcast [100000 x i32]* %3 to i8*
  call void @llvm.lifetime.start.p0i8(i64 400000, i8* nonnull %6) #6
  %7 = call nonnull align 8 dereferenceable(16) %"class.std::basic_istream"* @_ZNSirsERi(%"class.std::basic_istream"* nonnull align 8 dereferenceable(16) @_ZSt3cin, i32* nonnull align 4 dereferenceable(4) %2)
  %8 = load i32, i32* %2, align 4, !tbaa !5
  %9 = icmp sgt i32 %8, 0
  br i1 %9, label %10, label %18

10:                                               ; preds = %0, %10
  %11 = phi i64 [ %14, %10 ], [ 0, %0 ]
  %12 = getelementptr inbounds [100000 x i32], [100000 x i32]* %3, i64 0, i64 %11
  %13 = call nonnull align 8 dereferenceable(16) %"class.std::basic_istream"* @_ZNSirsERi(%"class.std::basic_istream"* nonnull align 8 dereferenceable(16) @_ZSt3cin, i32* nonnull align 4 dereferenceable(4) %12)
  %14 = add nuw nsw i64 %11, 1
  %15 = load i32, i32* %2, align 4, !tbaa !5
  %16 = sext i32 %15 to i64
  %17 = icmp slt i64 %14, %16
  br i1 %17, label %10, label %18, !llvm.loop !9

18:                                               ; preds = %10, %0
  %19 = call nonnull align 8 dereferenceable(16) %"class.std::basic_istream"* @_ZNSirsERi(%"class.std::basic_istream"* nonnull align 8 dereferenceable(16) @_ZSt3cin, i32* nonnull align 4 dereferenceable(4) %1)
  %20 = load i32, i32* %2, align 4, !tbaa !5
  %21 = load i32, i32* %1, align 4
  %22 = icmp sgt i32 %20, 0
  br i1 %22, label %23, label %59

23:                                               ; preds = %18
  %24 = zext i32 %20 to i64
  %25 = and i64 %24, 1
  %26 = icmp eq i32 %20, 1
  br i1 %26, label %46, label %27

27:                                               ; preds = %23
  %28 = and i64 %24, 4294967294
  br label %29

29:                                               ; preds = %80, %27
  %30 = phi i64 [ 0, %27 ], [ %82, %80 ]
  %31 = phi i32 [ 0, %27 ], [ %81, %80 ]
  %32 = phi i64 [ %28, %27 ], [ %83, %80 ]
  %33 = getelementptr inbounds [100000 x i32], [100000 x i32]* %3, i64 0, i64 %30
  %34 = load i32, i32* %33, align 8, !tbaa !5
  %35 = icmp eq i32 %34, %21
  br i1 %35, label %40, label %36

36:                                               ; preds = %29
  %37 = sext i32 %31 to i64
  %38 = getelementptr inbounds [100000 x i32], [100000 x i32]* %3, i64 0, i64 %37
  store i32 %34, i32* %38, align 4, !tbaa !5
  %39 = add nsw i32 %31, 1
  br label %40

40:                                               ; preds = %29, %36
  %41 = phi i32 [ %39, %36 ], [ %31, %29 ]
  %42 = or i64 %30, 1
  %43 = getelementptr inbounds [100000 x i32], [100000 x i32]* %3, i64 0, i64 %42
  %44 = load i32, i32* %43, align 4, !tbaa !5
  %45 = icmp eq i32 %44, %21
  br i1 %45, label %80, label %76

46:                                               ; preds = %80, %23
  %47 = phi i32 [ undef, %23 ], [ %81, %80 ]
  %48 = phi i64 [ 0, %23 ], [ %82, %80 ]
  %49 = phi i32 [ 0, %23 ], [ %81, %80 ]
  %50 = icmp eq i64 %25, 0
  br i1 %50, label %59, label %51

51:                                               ; preds = %46
  %52 = getelementptr inbounds [100000 x i32], [100000 x i32]* %3, i64 0, i64 %48
  %53 = load i32, i32* %52, align 4, !tbaa !5
  %54 = icmp eq i32 %53, %21
  br i1 %54, label %59, label %55

55:                                               ; preds = %51
  %56 = sext i32 %49 to i64
  %57 = getelementptr inbounds [100000 x i32], [100000 x i32]* %3, i64 0, i64 %56
  store i32 %53, i32* %57, align 4, !tbaa !5
  %58 = add nsw i32 %49, 1
  br label %59

59:                                               ; preds = %46, %51, %55, %18
  %60 = phi i32 [ 0, %18 ], [ %47, %46 ], [ %58, %55 ], [ %49, %51 ]
  %61 = getelementptr inbounds [100000 x i32], [100000 x i32]* %3, i64 0, i64 0
  %62 = load i32, i32* %61, align 16, !tbaa !5
  %63 = call nonnull align 8 dereferenceable(8) %"class.std::basic_ostream"* @_ZNSolsEi(%"class.std::basic_ostream"* nonnull align 8 dereferenceable(8) @_ZSt4cout, i32 %62)
  %64 = icmp sgt i32 %60, 1
  br i1 %64, label %65, label %75

65:                                               ; preds = %59
  %66 = zext i32 %60 to i64
  br label %67

67:                                               ; preds = %65, %67
  %68 = phi i64 [ 1, %65 ], [ %73, %67 ]
  %69 = call nonnull align 8 dereferenceable(8) %"class.std::basic_ostream"* @_ZSt16__ostream_insertIcSt11char_traitsIcEERSt13basic_ostreamIT_T0_ES6_PKS3_l(%"class.std::basic_ostream"* nonnull align 8 dereferenceable(8) @_ZSt4cout, i8* nonnull getelementptr inbounds ([2 x i8], [2 x i8]* @.str, i64 0, i64 0), i64 1)
  %70 = getelementptr inbounds [100000 x i32], [100000 x i32]* %3, i64 0, i64 %68
  %71 = load i32, i32* %70, align 4, !tbaa !5
  %72 = call nonnull align 8 dereferenceable(8) %"class.std::basic_ostream"* @_ZNSolsEi(%"class.std::basic_ostream"* nonnull align 8 dereferenceable(8) @_ZSt4cout, i32 %71)
  %73 = add nuw nsw i64 %68, 1
  %74 = icmp eq i64 %73, %66
  br i1 %74, label %75, label %67, !llvm.loop !11

75:                                               ; preds = %67, %59
  call void @llvm.lifetime.end.p0i8(i64 400000, i8* nonnull %6) #6
  call void @llvm.lifetime.end.p0i8(i64 4, i8* nonnull %5) #6
  call void @llvm.lifetime.end.p0i8(i64 4, i8* nonnull %4) #6
  ret i32 0

76:                                               ; preds = %40
  %77 = sext i32 %41 to i64
  %78 = getelementptr inbounds [100000 x i32], [100000 x i32]* %3, i64 0, i64 %77
  store i32 %44, i32* %78, align 4, !tbaa !5
  %79 = add nsw i32 %41, 1
  br label %80

80:                                               ; preds = %76, %40
  %81 = phi i32 [ %79, %76 ], [ %41, %40 ]
  %82 = add nuw nsw i64 %30, 2
  %83 = add i64 %32, -2
  %84 = icmp eq i64 %83, 0
  br i1 %84, label %46, label %29, !llvm.loop !12
}

; Function Attrs: argmemonly mustprogress nofree nosync nounwind willreturn
declare void @llvm.lifetime.start.p0i8(i64 immarg, i8* nocapture) #4

declare nonnull align 8 dereferenceable(16) %"class.std::basic_istream"* @_ZNSirsERi(%"class.std::basic_istream"* nonnull align 8 dereferenceable(16), i32* nonnull align 4 dereferenceable(4)) local_unnamed_addr #0

declare nonnull align 8 dereferenceable(8) %"class.std::basic_ostream"* @_ZNSolsEi(%"class.std::basic_ostream"* nonnull align 8 dereferenceable(8), i32) local_unnamed_addr #0

; Function Attrs: argmemonly mustprogress nofree nosync nounwind willreturn
declare void @llvm.lifetime.end.p0i8(i64 immarg, i8* nocapture) #4

declare nonnull align 8 dereferenceable(8) %"class.std::basic_ostream"* @_ZSt16__ostream_insertIcSt11char_traitsIcEERSt13basic_ostreamIT_T0_ES6_PKS3_l(%"class.std::basic_ostream"* nonnull align 8 dereferenceable(8), i8*, i64) local_unnamed_addr #0

; Function Attrs: sspstrong uwtable
define internal void @_GLOBAL__sub_I_320.cpp() #5 section ".text.startup" {
  tail call void @_ZNSt8ios_base4InitC1Ev(%"class.std::ios_base::Init"* nonnull align 1 dereferenceable(1) @_ZStL8__ioinit)
  %1 = tail call i32 @__cxa_atexit(void (i8*)* bitcast (void (%"class.std::ios_base::Init"*)* @_ZNSt8ios_base4InitD1Ev to void (i8*)*), i8* getelementptr inbounds (%"class.std::ios_base::Init", %"class.std::ios_base::Init"* @_ZStL8__ioinit, i64 0, i32 0), i8* nonnull @__dso_handle) #6
  ret void
}


!llvm.module.flags = !{!0, !1, !2, !3}
!llvm.ident = !{!4}

!0 = !{i32 1, !"wchar_size", i32 4}
!1 = !{i32 7, !"PIC Level", i32 2}
!2 = !{i32 7, !"PIE Level", i32 2}
!3 = !{i32 7, !"uwtable", i32 1}
!4 = !{!"clang version 13.0.0"}
!5 = !{!6, !6, i64 0}
!6 = !{!"int", !7, i64 0}
!7 = !{!"omnipotent char", !8, i64 0}
!8 = !{!"Simple C++ TBAA"}
!9 = distinct !{!9, !10}
!10 = !{!"llvm.loop.mustprogress"}
!11 = distinct !{!11, !10}
!12 = distinct !{!12, !10}
